; Function Attrs: mustprogress nofree norecurse nosync nounwind null_pointer_is_valid sspstrong willreturn memory(argmem: write) uwtable
define noundef nonnull ptr @wscbor_expert_items(ptr noundef writeonly captures(address_is_null) %0) local_unnamed_addr #7 {
  %.not = icmp eq ptr %0, null
  br i1 %.not, label %3, label %2

2:                                                ; preds = %1
  store i32 5, ptr %0, align 4
  br label %3

3:                                                ; preds = %2, %1
  ret ptr @expertitems
}